target datalayout = "e-m:e-p270:32:32-p271:32:32-p272:64:64-i64:64-i128:128-f80:128-n8:16:32:64-S128"
target triple = "x86_64-pc-linux-gnu"

%struct.zstream_funcs = type { ptr, ptr, ptr }
%struct.zstream = type { i64, i64, i64, i64, %struct.z_stream_s, ptr }
%struct.z_stream_s = type { ptr, i32, i64, ptr, i32, i64, ptr, ptr, ptr, ptr, ptr, i32, i64, i64 }
%struct.RBasic = type { i64, i64 }

@.str.151 = private unnamed_addr constant [49 x i8] c"attempt to close uninitialized zstream; ignored.\00", align 1
@.str.152 = private unnamed_addr constant [51 x i8] c"attempt to close unfinished zstream; reset forced.\00", align 1

; Function Attrs: inlinehint nounwind sspstrong willreturn memory(read) uwtable
define internal i64 @RBASIC_CLASS(i64 noundef %0) #6 {
  %2 = alloca i64, align 8
  store i64 %0, ptr %2, align 8, !tbaa !6
  %3 = load i64, ptr %2, align 8, !tbaa !6
  %4 = inttoptr i64 %3 to ptr
  %5 = getelementptr inbounds nuw %struct.RBasic, ptr %4, i32 0, i32 1
  %6 = load i64, ptr %5, align 8, !tbaa !98
  ret i64 %6
}

; Function Attrs: inlinehint nounwind sspstrong willreturn memory(none) uwtable
define internal zeroext i1 @RB_NIL_P(i64 noundef %0) #5 {
  %2 = alloca i64, align 8
  store i64 %0, ptr %2, align 8, !tbaa !6
  %3 = load i64, ptr %2, align 8, !tbaa !6
  %4 = icmp eq i64 %3, 4
  ret i1 %4
}

; Function Attrs: nounwind sspstrong uwtable
define internal void @zstream_reset_input(ptr noundef %0) #0 {
  %2 = alloca ptr, align 8
  store ptr %0, ptr %2, align 8, !tbaa !21
  %3 = load ptr, ptr %2, align 8, !tbaa !21
  %4 = getelementptr inbounds nuw %struct.zstream, ptr %3, i32 0, i32 2
  %5 = load i64, ptr %4, align 8, !tbaa !28
  %6 = call zeroext i1 @RB_NIL_P(i64 noundef %5) #24
  br i1 %6, label %18, label %7

7:                                                ; preds = %1
  %8 = load ptr, ptr %2, align 8, !tbaa !21
  %9 = getelementptr inbounds nuw %struct.zstream, ptr %8, i32 0, i32 2
  %10 = load i64, ptr %9, align 8, !tbaa !28
  %11 = call i64 @RBASIC_CLASS(i64 noundef %10) #25
  %12 = icmp eq i64 %11, 0
  br i1 %12, label %13, label %18

13:                                               ; preds = %7
  %14 = load ptr, ptr %2, align 8, !tbaa !21
  %15 = getelementptr inbounds nuw %struct.zstream, ptr %14, i32 0, i32 2
  %16 = load i64, ptr %15, align 8, !tbaa !28
  %17 = call i64 @rb_str_resize(i64 noundef %16, i64 noundef 0)
  br label %21

18:                                               ; preds = %7, %1
  %19 = load ptr, ptr %2, align 8, !tbaa !21
  %20 = getelementptr inbounds nuw %struct.zstream, ptr %19, i32 0, i32 2
  store i64 4, ptr %20, align 8, !tbaa !28
  br label %21

21:                                               ; preds = %18, %13
  ret void
}

; Function Attrs: nounwind sspstrong uwtable
define internal void @zstream_reset(ptr noundef %0) #0 {
  %2 = alloca ptr, align 8
  %3 = alloca i32, align 4
  store ptr %0, ptr %2, align 8, !tbaa !21
  call void @llvm.lifetime.start.p0(i64 4, ptr %3) #23
  %4 = load ptr, ptr %2, align 8, !tbaa !21
  %5 = getelementptr inbounds nuw %struct.zstream, ptr %4, i32 0, i32 5
  %6 = load ptr, ptr %5, align 8, !tbaa !93
  %7 = getelementptr inbounds nuw %struct.zstream_funcs, ptr %6, i32 0, i32 0
  %8 = load ptr, ptr %7, align 8, !tbaa !97
  %9 = load ptr, ptr %2, align 8, !tbaa !21
  %10 = getelementptr inbounds nuw %struct.zstream, ptr %9, i32 0, i32 4
  %11 = call i32 %8(ptr noundef %10)
  store i32 %11, ptr %3, align 4, !tbaa !10
  %12 = load i32, ptr %3, align 4, !tbaa !10
  %13 = icmp ne i32 %12, 0
  br i1 %13, label %14, label %20

14:                                               ; preds = %1
  %15 = load i32, ptr %3, align 4, !tbaa !10
  %16 = load ptr, ptr %2, align 8, !tbaa !21
  %17 = getelementptr inbounds nuw %struct.zstream, ptr %16, i32 0, i32 4
  %18 = getelementptr inbounds nuw %struct.z_stream_s, ptr %17, i32 0, i32 6
  %19 = load ptr, ptr %18, align 8, !tbaa !34
  call void @raise_zlib_error(i32 noundef %15, ptr noundef %19) #26
  unreachable

20:                                               ; preds = %1
  %21 = load ptr, ptr %2, align 8, !tbaa !21
  %22 = getelementptr inbounds nuw %struct.zstream, ptr %21, i32 0, i32 0
  store i64 1, ptr %22, align 8, !tbaa !33
  %23 = load ptr, ptr %2, align 8, !tbaa !21
  %24 = getelementptr inbounds nuw %struct.zstream, ptr %23, i32 0, i32 1
  store i64 4, ptr %24, align 8, !tbaa !35
  %25 = load ptr, ptr %2, align 8, !tbaa !21
  %26 = getelementptr inbounds nuw %struct.zstream, ptr %25, i32 0, i32 4
  %27 = getelementptr inbounds nuw %struct.z_stream_s, ptr %26, i32 0, i32 3
  store ptr null, ptr %27, align 8, !tbaa !96
  %28 = load ptr, ptr %2, align 8, !tbaa !21
  %29 = getelementptr inbounds nuw %struct.zstream, ptr %28, i32 0, i32 4
  %30 = getelementptr inbounds nuw %struct.z_stream_s, ptr %29, i32 0, i32 4
  store i32 0, ptr %30, align 8, !tbaa !23
  %31 = load ptr, ptr %2, align 8, !tbaa !21
  call void @zstream_reset_input(ptr noundef %31)
  call void @llvm.lifetime.end.p0(i64 4, ptr %3) #23
  ret void
}

; Function Attrs: nounwind sspstrong uwtable
define internal i64 @zstream_end(ptr noundef %0) #0 {
  %2 = alloca i64, align 8
  %3 = alloca ptr, align 8
  %4 = alloca i32, align 4
  %5 = alloca i32, align 4
  store ptr %0, ptr %3, align 8, !tbaa !21
  call void @llvm.lifetime.start.p0(i64 4, ptr %4) #23
  %6 = load ptr, ptr %3, align 8, !tbaa !21
  %7 = getelementptr inbounds nuw %struct.zstream, ptr %6, i32 0, i32 0
  %8 = load i64, ptr %7, align 8, !tbaa !33
  %9 = and i64 %8, 1
  %10 = icmp ne i64 %9, 0
  br i1 %10, label %12, label %11

11:                                               ; preds = %1
  call void (ptr, ...) @rb_warning(ptr noundef @.str.151)
  store i64 4, ptr %2, align 8
  store i32 1, ptr %5, align 4
  br label %41

12:                                               ; preds = %1
  %13 = load ptr, ptr %3, align 8, !tbaa !21
  %14 = getelementptr inbounds nuw %struct.zstream, ptr %13, i32 0, i32 0
  %15 = load i64, ptr %14, align 8, !tbaa !33
  %16 = and i64 %15, 2
  %17 = icmp ne i64 %16, 0
  br i1 %17, label %18, label %20

18:                                               ; preds = %12
  call void (ptr, ...) @rb_warning(ptr noundef @.str.152)
  %19 = load ptr, ptr %3, align 8, !tbaa !21
  call void @zstream_reset(ptr noundef %19)
  br label %20

20:                                               ; preds = %18, %12
  %21 = load ptr, ptr %3, align 8, !tbaa !21
  call void @zstream_reset_input(ptr noundef %21)
  %22 = load ptr, ptr %3, align 8, !tbaa !21
  %23 = getelementptr inbounds nuw %struct.zstream, ptr %22, i32 0, i32 5
  %24 = load ptr, ptr %23, align 8, !tbaa !93
  %25 = getelementptr inbounds nuw %struct.zstream_funcs, ptr %24, i32 0, i32 1
  %26 = load ptr, ptr %25, align 8, !tbaa !94
  %27 = load ptr, ptr %3, align 8, !tbaa !21
  %28 = getelementptr inbounds nuw %struct.zstream, ptr %27, i32 0, i32 4
  %29 = call i32 %26(ptr noundef %28)
  store i32 %29, ptr %4, align 4, !tbaa !10
  %30 = load i32, ptr %4, align 4, !tbaa !10
  %31 = icmp ne i32 %30, 0
  br i1 %31, label %32, label %38

32:                                               ; preds = %20
  %33 = load i32, ptr %4, align 4, !tbaa !10
  %34 = load ptr, ptr %3, align 8, !tbaa !21
  %35 = getelementptr inbounds nuw %struct.zstream, ptr %34, i32 0, i32 4
  %36 = getelementptr inbounds nuw %struct.z_stream_s, ptr %35, i32 0, i32 6
  %37 = load ptr, ptr %36, align 8, !tbaa !34
  call void @raise_zlib_error(i32 noundef %33, ptr noundef %37) #26
  unreachable

38:                                               ; preds = %20
  %39 = load ptr, ptr %3, align 8, !tbaa !21
  %40 = getelementptr inbounds nuw %struct.zstream, ptr %39, i32 0, i32 0
  store i64 0, ptr %40, align 8, !tbaa !33
  store i64 4, ptr %2, align 8
  store i32 1, ptr %5, align 4
  br label %41

41:                                               ; preds = %38, %11
  call void @llvm.lifetime.end.p0(i64 4, ptr %4) #23
  %42 = load i64, ptr %2, align 8
  ret i64 %42
}