; Function Attrs: nounwind sspstrong uwtable
define internal fastcc void @zstream_end(ptr noundef %0) unnamed_addr #0 {
  %2 = load i64, ptr %0, align 8, !tbaa !42
  %3 = and i64 %2, 1
  %.not = icmp eq i64 %3, 0
  br i1 %.not, label %4, label %5

4:                                                ; preds = %1
  tail call void (ptr, ...) @rb_warning(ptr noundef nonnull @.str.151) #18
  br label %52

5:                                                ; preds = %1
  %6 = and i64 %2, 2
  %.not10 = icmp eq i64 %6, 0
  br i1 %.not10, label %zstream_reset.exit, label %7

7:                                                ; preds = %5
  tail call void (ptr, ...) @rb_warning(ptr noundef nonnull @.str.152) #18
  %8 = getelementptr inbounds nuw i8, ptr %0, i64 144
  %9 = load ptr, ptr %8, align 8, !tbaa !56
  %10 = load ptr, ptr %9, align 8, !tbaa !57
  %11 = getelementptr inbounds nuw i8, ptr %0, i64 32
  %12 = tail call i32 %10(ptr noundef nonnull %11) #18
  %.not.i = icmp eq i32 %12, 0
  br i1 %.not.i, label %16, label %13

13:                                               ; preds = %7
  %14 = getelementptr inbounds nuw i8, ptr %0, i64 80
  %15 = load ptr, ptr %14, align 8, !tbaa !59
  tail call fastcc void @raise_zlib_error(i32 noundef %12, ptr noundef %15) #20
  unreachable

16:                                               ; preds = %7
  store i64 1, ptr %0, align 8, !tbaa !42
  %17 = getelementptr inbounds nuw i8, ptr %0, i64 8
  store i64 4, ptr %17, align 8, !tbaa !43
  %18 = getelementptr inbounds nuw i8, ptr %0, i64 56
  store ptr null, ptr %18, align 8, !tbaa !47
  %19 = getelementptr inbounds nuw i8, ptr %0, i64 64
  store i32 0, ptr %19, align 8, !tbaa !36
  %20 = getelementptr inbounds nuw i8, ptr %0, i64 16
  %21 = load i64, ptr %20, align 8, !tbaa !51
  %22 = icmp eq i64 %21, 4
  br i1 %22, label %30, label %23

23:                                               ; preds = %16
  %24 = inttoptr i64 %21 to ptr
  %25 = getelementptr inbounds nuw i8, ptr %24, i64 8
  %26 = load i64, ptr %25, align 8, !tbaa !60
  %27 = icmp eq i64 %26, 0
  br i1 %27, label %28, label %30

28:                                               ; preds = %23
  %29 = tail call i64 @rb_str_resize(i64 noundef %21, i64 noundef 0) #18
  br label %zstream_reset.exit

30:                                               ; preds = %23, %16
  store i64 4, ptr %20, align 8, !tbaa !51
  br label %zstream_reset.exit

zstream_reset.exit:                               ; preds = %30, %28, %5
  %31 = getelementptr inbounds nuw i8, ptr %0, i64 16
  %32 = load i64, ptr %31, align 8, !tbaa !51
  %33 = icmp eq i64 %32, 4
  br i1 %33, label %41, label %34

34:                                               ; preds = %zstream_reset.exit
  %35 = inttoptr i64 %32 to ptr
  %36 = getelementptr inbounds nuw i8, ptr %35, i64 8
  %37 = load i64, ptr %36, align 8, !tbaa !60
  %38 = icmp eq i64 %37, 0
  br i1 %38, label %39, label %41

39:                                               ; preds = %34
  %40 = tail call i64 @rb_str_resize(i64 noundef %32, i64 noundef 0) #18
  br label %zstream_reset_input.exit

41:                                               ; preds = %34, %zstream_reset.exit
  store i64 4, ptr %31, align 8, !tbaa !51
  br label %zstream_reset_input.exit

zstream_reset_input.exit:                         ; preds = %39, %41
  %42 = getelementptr inbounds nuw i8, ptr %0, i64 144
  %43 = load ptr, ptr %42, align 8, !tbaa !56
  %44 = getelementptr inbounds nuw i8, ptr %43, i64 8
  %45 = load ptr, ptr %44, align 8, !tbaa !196
  %46 = getelementptr inbounds nuw i8, ptr %0, i64 32
  %47 = tail call i32 %45(ptr noundef nonnull %46) #18
  %.not11 = icmp eq i32 %47, 0
  br i1 %.not11, label %51, label %48

48:                                               ; preds = %zstream_reset_input.exit
  %49 = getelementptr inbounds nuw i8, ptr %0, i64 80
  %50 = load ptr, ptr %49, align 8, !tbaa !59
  tail call fastcc void @raise_zlib_error(i32 noundef %47, ptr noundef %50) #20
  unreachable

51:                                               ; preds = %zstream_reset_input.exit
  store i64 0, ptr %0, align 8, !tbaa !42
  br label %52

52:                                               ; preds = %51, %4
  ret void
}